; Function Attrs: nofree norecurse nosync nounwind uwtable
define range(i64 0, 4294967296) i64 @zfp_encode_partial_block_strided_int32_3(ptr noundef readonly captures(none) %0, ptr noundef readonly captures(none) %1, i64 noundef %2, i64 noundef %3, i64 noundef %4, i64 noundef %5, i64 noundef %6, i64 noundef %7) local_unnamed_addr #0 {
  %9 = alloca [64 x i32], align 256
  call void @llvm.lifetime.start.p0(i64 256, ptr nonnull %9) #7
  %.not.i = icmp eq i64 %4, 0
  br i1 %.not.i, label %.preheader.i.us.preheader, label %.preheader70.lr.ph.i

.preheader70.lr.ph.i:                             ; preds = %8
  %.not103.i = icmp eq i64 %3, 0
  %10 = mul nsw i64 %5, %2
  %11 = sub nsw i64 %6, %10
  %12 = mul nsw i64 %6, %3
  %13 = sub nsw i64 %7, %12
  br i1 %.not103.i, label %.preheader70.i, label %.preheader70.lr.ph.split.us.i

.preheader70.lr.ph.split.us.i:                    ; preds = %.preheader70.lr.ph.i
  %.not104.i = icmp eq i64 %2, 0
  br i1 %.not104.i, label %.preheader70.us.i.preheader, label %.preheader70.us.us.i

.preheader70.us.i.preheader:                      ; preds = %.preheader70.lr.ph.split.us.i
  %14 = shl nuw i64 %3, 4
  br label %.preheader70.us.i

.preheader70.us.us.i:                             ; preds = %.preheader70.lr.ph.split.us.i, %16
  %.078.us.us.i = phi i64 [ %17, %16 ], [ 0, %.preheader70.lr.ph.split.us.i ]
  %.04477.us.us.i = phi ptr [ %18, %16 ], [ %1, %.preheader70.lr.ph.split.us.i ]
  %.idx53.us.us.i = shl i64 %.078.us.us.i, 6
  %15 = getelementptr i8, ptr %9, i64 %.idx53.us.us.i
  br label %.preheader68.us.us.us.i

16:                                               ; preds = %pad_block_int32.exit60.us.us.i
  %17 = add nuw i64 %.078.us.us.i, 1
  %18 = getelementptr inbounds i32, ptr %40, i64 %13
  %exitcond115.not.i = icmp eq i64 %17, %4
  br i1 %exitcond115.not.i, label %.preheader67.i, label %.preheader70.us.us.i

..preheader69_crit_edge.split.us.us.us.i:         ; preds = %pad_block_int32.exit.us.us.us.i, %pad_block_int32.exit60.us.us.i
  %.14376.us.us.i = phi i64 [ %30, %pad_block_int32.exit60.us.us.i ], [ 0, %pad_block_int32.exit.us.us.us.i ]
  %19 = getelementptr inbounds nuw i32, ptr %15, i64 %.14376.us.us.i
  switch i64 %3, label %pad_block_int32.exit60.us.us.i [
    i64 0, label %20
    i64 1, label %._crit_edge.i58.us.us.i
    i64 2, label %._crit_edge15.i55.us.us.i
    i64 3, label %27
  ]

._crit_edge15.i55.us.us.i:                        ; preds = %..preheader69_crit_edge.split.us.us.us.i
  %.phi.trans.insert.i56.us.us.i = getelementptr inbounds nuw i8, ptr %19, i64 16
  %.pre16.i57.us.us.i = load i32, ptr %.phi.trans.insert.i56.us.us.i, align 4, !tbaa !4
  br label %24

._crit_edge.i58.us.us.i:                          ; preds = %..preheader69_crit_edge.split.us.us.us.i
  %.pre.i59.us.us.i = load i32, ptr %19, align 4, !tbaa !4
  br label %21

20:                                               ; preds = %..preheader69_crit_edge.split.us.us.us.i
  store i32 0, ptr %19, align 4, !tbaa !4
  br label %21

21:                                               ; preds = %20, %._crit_edge.i58.us.us.i
  %22 = phi i32 [ %.pre.i59.us.us.i, %._crit_edge.i58.us.us.i ], [ 0, %20 ]
  %23 = getelementptr inbounds nuw i8, ptr %19, i64 16
  store i32 %22, ptr %23, align 4, !tbaa !4
  br label %24

24:                                               ; preds = %21, %._crit_edge15.i55.us.us.i
  %25 = phi i32 [ %.pre16.i57.us.us.i, %._crit_edge15.i55.us.us.i ], [ %22, %21 ]
  %26 = getelementptr inbounds nuw i8, ptr %19, i64 32
  store i32 %25, ptr %26, align 4, !tbaa !4
  br label %27

27:                                               ; preds = %24, %..preheader69_crit_edge.split.us.us.us.i
  %28 = load i32, ptr %19, align 4, !tbaa !4
  %29 = getelementptr inbounds nuw i8, ptr %19, i64 48
  store i32 %28, ptr %29, align 4, !tbaa !4
  br label %pad_block_int32.exit60.us.us.i

pad_block_int32.exit60.us.us.i:                   ; preds = %27, %..preheader69_crit_edge.split.us.us.us.i
  %30 = add nuw nsw i64 %.14376.us.us.i, 1
  %exitcond114.not.i = icmp eq i64 %30, 4
  br i1 %exitcond114.not.i, label %16, label %..preheader69_crit_edge.split.us.us.us.i

.preheader68.us.us.us.i:                          ; preds = %pad_block_int32.exit.us.us.us.i, %.preheader70.us.us.i
  %.04174.us.us.us.i = phi i64 [ 0, %.preheader70.us.us.i ], [ %39, %pad_block_int32.exit.us.us.us.i ]
  %.14573.us.us.us.i = phi ptr [ %.04477.us.us.i, %.preheader70.us.us.i ], [ %40, %pad_block_int32.exit.us.us.us.i ]
  %.idx54.us.us.us.i = shl i64 %.04174.us.us.us.i, 4
  %31 = getelementptr i8, ptr %15, i64 %.idx54.us.us.us.i
  br label %41

._crit_edge15.i.us.us.us.i:                       ; preds = %._crit_edge.us.us.us.i
  %.phi.trans.insert.i.us.us.us.i = getelementptr inbounds nuw i8, ptr %31, i64 4
  %.pre16.i.us.us.us.i = load i32, ptr %.phi.trans.insert.i.us.us.us.i, align 4, !tbaa !4
  br label %33

._crit_edge.i.us.us.us.i:                         ; preds = %._crit_edge.us.us.us.i
  %.pre.i.us.us.us.i = load i32, ptr %31, align 16, !tbaa !4
  %32 = getelementptr inbounds nuw i8, ptr %31, i64 4
  store i32 %.pre.i.us.us.us.i, ptr %32, align 4, !tbaa !4
  br label %33

33:                                               ; preds = %._crit_edge.i.us.us.us.i, %._crit_edge15.i.us.us.us.i
  %34 = phi i32 [ %.pre16.i.us.us.us.i, %._crit_edge15.i.us.us.us.i ], [ %.pre.i.us.us.us.i, %._crit_edge.i.us.us.us.i ]
  %35 = getelementptr inbounds nuw i8, ptr %31, i64 8
  store i32 %34, ptr %35, align 8, !tbaa !4
  br label %36

36:                                               ; preds = %._crit_edge.us.us.us.i, %33
  %37 = load i32, ptr %31, align 16, !tbaa !4
  %38 = getelementptr inbounds nuw i8, ptr %31, i64 12
  store i32 %37, ptr %38, align 4, !tbaa !4
  br label %pad_block_int32.exit.us.us.us.i

pad_block_int32.exit.us.us.us.i:                  ; preds = %._crit_edge.us.us.us.i, %36
  %39 = add nuw i64 %.04174.us.us.us.i, 1
  %40 = getelementptr inbounds i32, ptr %45, i64 %11
  %exitcond113.not.i = icmp eq i64 %39, %3
  br i1 %exitcond113.not.i, label %..preheader69_crit_edge.split.us.us.us.i, label %.preheader68.us.us.us.i

41:                                               ; preds = %41, %.preheader68.us.us.us.i
  %.04272.us.us.us.i = phi i64 [ 0, %.preheader68.us.us.us.i ], [ %44, %41 ]
  %.24671.us.us.us.i = phi ptr [ %.14573.us.us.us.i, %.preheader68.us.us.us.i ], [ %45, %41 ]
  %42 = load i32, ptr %.24671.us.us.us.i, align 4, !tbaa !4
  %43 = getelementptr i32, ptr %31, i64 %.04272.us.us.us.i
  store i32 %42, ptr %43, align 4, !tbaa !4
  %44 = add nuw i64 %.04272.us.us.us.i, 1
  %45 = getelementptr inbounds i32, ptr %.24671.us.us.us.i, i64 %5
  %exitcond.not.i = icmp eq i64 %44, %2
  br i1 %exitcond.not.i, label %._crit_edge.us.us.us.i, label %41

._crit_edge.us.us.us.i:                           ; preds = %41
  switch i64 %2, label %pad_block_int32.exit.us.us.us.i [
    i64 3, label %36
    i64 1, label %._crit_edge.i.us.us.us.i
    i64 2, label %._crit_edge15.i.us.us.us.i
  ]

.preheader70.us.i:                                ; preds = %.preheader70.us.i.preheader, %47
  %.078.us.i = phi i64 [ %48, %47 ], [ 0, %.preheader70.us.i.preheader ]
  %46 = shl i64 %.078.us.i, 6
  %scevgep = getelementptr i8, ptr %9, i64 %46
  call void @llvm.memset.p0.i64(ptr align 64 %scevgep, i8 0, i64 %14, i1 false), !tbaa !4
  br label %..preheader69_crit_edge.split.us89.i

47:                                               ; preds = %pad_block_int32.exit60.us.i
  %48 = add nuw i64 %.078.us.i, 1
  %exitcond118.not.i = icmp eq i64 %48, %4
  br i1 %exitcond118.not.i, label %.preheader67.i, label %.preheader70.us.i

..preheader69_crit_edge.split.us89.i:             ; preds = %.preheader70.us.i, %pad_block_int32.exit60.us.i
  %.14376.us.i = phi i64 [ %60, %pad_block_int32.exit60.us.i ], [ 0, %.preheader70.us.i ]
  %49 = getelementptr inbounds nuw i32, ptr %scevgep, i64 %.14376.us.i
  switch i64 %3, label %pad_block_int32.exit60.us.i [
    i64 0, label %50
    i64 1, label %._crit_edge.i58.us.i
    i64 2, label %._crit_edge15.i55.us.i
    i64 3, label %57
  ]

._crit_edge15.i55.us.i:                           ; preds = %..preheader69_crit_edge.split.us89.i
  %.phi.trans.insert.i56.us.i = getelementptr inbounds nuw i8, ptr %49, i64 16
  %.pre16.i57.us.i = load i32, ptr %.phi.trans.insert.i56.us.i, align 4, !tbaa !4
  br label %54

._crit_edge.i58.us.i:                             ; preds = %..preheader69_crit_edge.split.us89.i
  %.pre.i59.us.i = load i32, ptr %49, align 4, !tbaa !4
  br label %51

50:                                               ; preds = %..preheader69_crit_edge.split.us89.i
  store i32 0, ptr %49, align 4, !tbaa !4
  br label %51

51:                                               ; preds = %50, %._crit_edge.i58.us.i
  %52 = phi i32 [ %.pre.i59.us.i, %._crit_edge.i58.us.i ], [ 0, %50 ]
  %53 = getelementptr inbounds nuw i8, ptr %49, i64 16
  store i32 %52, ptr %53, align 4, !tbaa !4
  br label %54

54:                                               ; preds = %51, %._crit_edge15.i55.us.i
  %55 = phi i32 [ %.pre16.i57.us.i, %._crit_edge15.i55.us.i ], [ %52, %51 ]
  %56 = getelementptr inbounds nuw i8, ptr %49, i64 32
  store i32 %55, ptr %56, align 4, !tbaa !4
  br label %57

57:                                               ; preds = %54, %..preheader69_crit_edge.split.us89.i
  %58 = load i32, ptr %49, align 4, !tbaa !4
  %59 = getelementptr inbounds nuw i8, ptr %49, i64 48
  store i32 %58, ptr %59, align 4, !tbaa !4
  br label %pad_block_int32.exit60.us.i

pad_block_int32.exit60.us.i:                      ; preds = %57, %..preheader69_crit_edge.split.us89.i
  %60 = add nuw nsw i64 %.14376.us.i, 1
  %exitcond117.not.i = icmp eq i64 %60, 4
  br i1 %exitcond117.not.i, label %47, label %..preheader69_crit_edge.split.us89.i

.preheader70.i:                                   ; preds = %.preheader70.lr.ph.i, %.preheader70.i
  %.078.i = phi i64 [ %65, %.preheader70.i ], [ 0, %.preheader70.lr.ph.i ]
  %61 = shl i64 %.078.i, 6
  %62 = or disjoint i64 %61, 48
  %scevgep40 = getelementptr i8, ptr %9, i64 %62
  %63 = or disjoint i64 %61, 32
  %scevgep39 = getelementptr i8, ptr %9, i64 %63
  %64 = or disjoint i64 %61, 16
  %scevgep38 = getelementptr i8, ptr %9, i64 %64
  %scevgep37 = getelementptr i8, ptr %9, i64 %61
  call void @llvm.memset.p0.i64(ptr noundef nonnull align 64 dereferenceable(16) %scevgep37, i8 0, i64 16, i1 false), !tbaa !4
  call void @llvm.memset.p0.i64(ptr noundef nonnull align 16 dereferenceable(16) %scevgep38, i8 0, i64 16, i1 false), !tbaa !4
  call void @llvm.memset.p0.i64(ptr noundef nonnull align 32 dereferenceable(16) %scevgep39, i8 0, i64 16, i1 false), !tbaa !4
  call void @llvm.memset.p0.i64(ptr noundef nonnull align 16 dereferenceable(16) %scevgep40, i8 0, i64 16, i1 false), !tbaa !4
  %65 = add nuw i64 %.078.i, 1
  %exitcond120.not.i = icmp eq i64 %65, %4
  br i1 %exitcond120.not.i, label %.preheader67.i, label %.preheader70.i

.preheader67.i:                                   ; preds = %16, %47, %.preheader70.i
  switch i64 %4, label %gather_partial_int32_3.exit [
    i64 3, label %.preheader.i.us25
    i64 1, label %.preheader.i.us13
    i64 2, label %.preheader.i.us19
  ]

.preheader.i.us.preheader:                        ; preds = %8
  call void @llvm.memset.p0.i64(ptr noundef nonnull align 256 dereferenceable(256) %9, i8 0, i64 256, i1 false)
  br label %gather_partial_int32_3.exit

.preheader.i.us13:                                ; preds = %.preheader67.i, %.split.us.i.loopexit.us
  %.1102.i.us14 = phi i64 [ %72, %.split.us.i.loopexit.us ], [ 0, %.preheader67.i ]
  %66 = shl nuw nsw i64 %.1102.i.us14, 4
  %scevgep.i.us15 = getelementptr i8, ptr %9, i64 %66
  br label %._crit_edge.i64.us.i.us

._crit_edge.i64.us.i.us:                          ; preds = %.preheader.i.us13, %._crit_edge.i64.us.i.us
  %.292.us94.i.us = phi i64 [ %71, %._crit_edge.i64.us.i.us ], [ 0, %.preheader.i.us13 ]
  %67 = getelementptr inbounds nuw i32, ptr %scevgep.i.us15, i64 %.292.us94.i.us
  %.pre.i65.us.i.us = load i32, ptr %67, align 4, !tbaa !4
  %68 = getelementptr inbounds nuw i8, ptr %67, i64 64
  store i32 %.pre.i65.us.i.us, ptr %68, align 4, !tbaa !4
  %69 = getelementptr inbounds nuw i8, ptr %67, i64 128
  store i32 %.pre.i65.us.i.us, ptr %69, align 4, !tbaa !4
  %70 = getelementptr inbounds nuw i8, ptr %67, i64 192
  store i32 %.pre.i65.us.i.us, ptr %70, align 4, !tbaa !4
  %71 = add nuw nsw i64 %.292.us94.i.us, 1
  %exitcond124.not.i.us = icmp eq i64 %71, 4
  br i1 %exitcond124.not.i.us, label %.split.us.i.loopexit.us, label %._crit_edge.i64.us.i.us

.split.us.i.loopexit.us:                          ; preds = %._crit_edge.i64.us.i.us
  %72 = add nuw nsw i64 %.1102.i.us14, 1
  %exitcond128.not.i.us17 = icmp eq i64 %72, 4
  br i1 %exitcond128.not.i.us17, label %gather_partial_int32_3.exit, label %.preheader.i.us13

.preheader.i.us19:                                ; preds = %.preheader67.i, %.split.us.i.loopexit7.us
  %.1102.i.us20 = phi i64 [ %79, %.split.us.i.loopexit7.us ], [ 0, %.preheader67.i ]
  %73 = shl nuw nsw i64 %.1102.i.us20, 4
  %scevgep.i.us21 = getelementptr i8, ptr %9, i64 %73
  br label %._crit_edge15.i61.us.i.us

._crit_edge15.i61.us.i.us:                        ; preds = %.preheader.i.us19, %._crit_edge15.i61.us.i.us
  %.292.us97.i.us = phi i64 [ %78, %._crit_edge15.i61.us.i.us ], [ 0, %.preheader.i.us19 ]
  %74 = getelementptr inbounds nuw i32, ptr %scevgep.i.us21, i64 %.292.us97.i.us
  %.phi.trans.insert.i62.us.i.us = getelementptr inbounds nuw i8, ptr %74, i64 64
  %.pre16.i63.us.i.us = load i32, ptr %.phi.trans.insert.i62.us.i.us, align 4, !tbaa !4
  %75 = getelementptr inbounds nuw i8, ptr %74, i64 128
  store i32 %.pre16.i63.us.i.us, ptr %75, align 4, !tbaa !4
  %76 = load i32, ptr %74, align 4, !tbaa !4
  %77 = getelementptr inbounds nuw i8, ptr %74, i64 192
  store i32 %76, ptr %77, align 4, !tbaa !4
  %78 = add nuw nsw i64 %.292.us97.i.us, 1
  %exitcond123.not.i.us = icmp eq i64 %78, 4
  br i1 %exitcond123.not.i.us, label %.split.us.i.loopexit7.us, label %._crit_edge15.i61.us.i.us

.split.us.i.loopexit7.us:                         ; preds = %._crit_edge15.i61.us.i.us
  %79 = add nuw nsw i64 %.1102.i.us20, 1
  %exitcond128.not.i.us23 = icmp eq i64 %79, 4
  br i1 %exitcond128.not.i.us23, label %gather_partial_int32_3.exit, label %.preheader.i.us19

.preheader.i.us25:                                ; preds = %.preheader67.i, %.split.us.i.loopexit8.us
  %.1102.i.us26 = phi i64 [ %85, %.split.us.i.loopexit8.us ], [ 0, %.preheader67.i ]
  %80 = shl nuw nsw i64 %.1102.i.us26, 4
  %scevgep.i.us27 = getelementptr i8, ptr %9, i64 %80
  br label %pad_block_int32.exit66.us101.i.us

pad_block_int32.exit66.us101.i.us:                ; preds = %.preheader.i.us25, %pad_block_int32.exit66.us101.i.us
  %.292.us100.i.us = phi i64 [ %84, %pad_block_int32.exit66.us101.i.us ], [ 0, %.preheader.i.us25 ]
  %81 = getelementptr inbounds nuw i32, ptr %scevgep.i.us27, i64 %.292.us100.i.us
  %82 = load i32, ptr %81, align 4, !tbaa !4
  %83 = getelementptr inbounds nuw i8, ptr %81, i64 192
  store i32 %82, ptr %83, align 4, !tbaa !4
  %84 = add nuw nsw i64 %.292.us100.i.us, 1
  %exitcond122.not.i.us = icmp eq i64 %84, 4
  br i1 %exitcond122.not.i.us, label %.split.us.i.loopexit8.us, label %pad_block_int32.exit66.us101.i.us

.split.us.i.loopexit8.us:                         ; preds = %pad_block_int32.exit66.us101.i.us
  %85 = add nuw nsw i64 %.1102.i.us26, 1
  %exitcond128.not.i.us29 = icmp eq i64 %85, 4
  br i1 %exitcond128.not.i.us29, label %gather_partial_int32_3.exit, label %.preheader.i.us25

gather_partial_int32_3.exit:                      ; preds = %.split.us.i.loopexit7.us, %.split.us.i.loopexit.us, %.split.us.i.loopexit8.us, %.preheader67.i, %.preheader.i.us.preheader
  %86 = call i64 @zfp_encode_block_int32_3(ptr noundef %0, ptr noundef nonnull %9)
  call void @llvm.lifetime.end.p0(i64 256, ptr nonnull %9) #7
  ret i64 %86
}